target datalayout = "e-m:e-p270:32:32-p271:32:32-p272:64:64-i64:64-i128:128-f80:128-n8:16:32:64-S128"
target triple = "x86_64-pc-linux-gnu"

%"class.folly::AsyncTimeout" = type { ptr, %"class.folly::EventBaseEvent", ptr, %"class.std::shared_ptr" }
%"class.folly::EventBaseEvent" = type { %struct.event, ptr, ptr, ptr, %"struct.folly::EventCallback" }
%struct.event = type { %struct.event_callback, %union.anon.0, i32, ptr, %union.anon.2, i16, i16, %struct.timeval }
%struct.event_callback = type { %struct.anon, i16, i8, i8, %union.anon, ptr }
%struct.anon = type { ptr, ptr }
%union.anon = type { ptr }
%union.anon.0 = type { %struct.anon.1 }
%struct.anon.1 = type { ptr, ptr }
%union.anon.2 = type { %struct.anon.3 }
%struct.anon.3 = type { %struct.anon.4, %struct.timeval }
%struct.anon.4 = type { ptr, ptr }
%struct.timeval = type { i64, i64 }
%"struct.folly::EventCallback" = type { i32, %union.anon.7 }
%union.anon.7 = type { ptr }
%"class.std::shared_ptr" = type { %"class.std::__shared_ptr" }
%"class.std::__shared_ptr" = type { ptr, %"class.std::__shared_count" }
%"class.std::__shared_count" = type { ptr }

@_ZTVN5folly12AsyncTimeoutE = unnamed_addr constant { [5 x ptr] } { [5 x ptr] [ptr null, ptr @_ZTIN5folly12AsyncTimeoutE, ptr @_ZN5folly12AsyncTimeoutD1Ev, ptr @_ZN5folly12AsyncTimeoutD0Ev, ptr @__cxa_pure_virtual] }, align 8

; Function Attrs: mustprogress nounwind uwtable
define linkonce_odr void @_ZNSt14__shared_countILN9__gnu_cxx12_Lock_policyE2EEC2Ev(ptr noundef nonnull align 8 dereferenceable(8) %0) unnamed_addr #0 comdat align 2 {
  %2 = alloca ptr, align 8
  store ptr %0, ptr %2, align 8, !tbaa !52
  %3 = load ptr, ptr %2, align 8
  %4 = getelementptr inbounds nuw %"class.std::__shared_count", ptr %3, i32 0, i32 0
  store ptr null, ptr %4, align 8, !tbaa !54
  ret void
}

; Function Attrs: mustprogress nounwind uwtable
define linkonce_odr void @_ZNSt12__shared_ptrIN5folly14RequestContextELN9__gnu_cxx12_Lock_policyE2EEC2Ev(ptr noundef nonnull align 8 dereferenceable(16) %0) unnamed_addr #0 comdat align 2 {
  %2 = alloca ptr, align 8
  store ptr %0, ptr %2, align 8, !tbaa !71
  %3 = load ptr, ptr %2, align 8
  %4 = getelementptr inbounds nuw %"class.std::__shared_ptr", ptr %3, i32 0, i32 0
  store ptr null, ptr %4, align 8, !tbaa !73
  %5 = getelementptr inbounds nuw %"class.std::__shared_ptr", ptr %3, i32 0, i32 1
  call void @_ZNSt14__shared_countILN9__gnu_cxx12_Lock_policyE2EEC2Ev(ptr noundef nonnull align 8 dereferenceable(8) %5) #16
  ret void
}

; Function Attrs: inlinehint mustprogress nounwind uwtable
define linkonce_odr void @_ZN5folly13EventCallbackC2Ev(ptr noundef nonnull align 8 dereferenceable(16) %0) unnamed_addr #3 comdat align 2 {
  %2 = alloca ptr, align 8
  store ptr %0, ptr %2, align 8, !tbaa !49
  %3 = load ptr, ptr %2, align 8
  %4 = getelementptr inbounds nuw %"struct.folly::EventCallback", ptr %3, i32 0, i32 0
  store i32 0, ptr %4, align 8, !tbaa !51
  ret void
}

; Function Attrs: mustprogress uwtable
define linkonce_odr void @_ZN5folly14EventBaseEvent12eb_event_setEisPFvisPvES1_(ptr noundef nonnull align 8 dereferenceable(168) %0, i32 noundef %1, i16 noundef signext %2, ptr noundef %3, ptr noundef %4) #1 comdat align 2 {
  %6 = alloca ptr, align 8
  %7 = alloca i32, align 4
  %8 = alloca i16, align 2
  %9 = alloca ptr, align 8
  %10 = alloca ptr, align 8
  store ptr %0, ptr %6, align 8, !tbaa !39
  store i32 %1, ptr %7, align 4, !tbaa !46
  store i16 %2, ptr %8, align 2, !tbaa !47
  store ptr %3, ptr %9, align 8, !tbaa !48
  store ptr %4, ptr %10, align 8, !tbaa !48
  %11 = load ptr, ptr %6, align 8
  %12 = getelementptr inbounds nuw %"class.folly::EventBaseEvent", ptr %11, i32 0, i32 0
  %13 = load i32, ptr %7, align 4, !tbaa !46
  %14 = load i16, ptr %8, align 2, !tbaa !47
  %15 = load ptr, ptr %9, align 8, !tbaa !48
  %16 = load ptr, ptr %10, align 8, !tbaa !48
  call void @event_set(ptr noundef %12, i32 noundef %13, i16 noundef signext %14, ptr noundef %15, ptr noundef %16)
  ret void
}

; Function Attrs: mustprogress nounwind uwtable
define linkonce_odr void @_ZNSt10shared_ptrIN5folly14RequestContextEEC2Ev(ptr noundef nonnull align 8 dereferenceable(16) %0) unnamed_addr #0 comdat align 2 {
  %2 = alloca ptr, align 8
  store ptr %0, ptr %2, align 8, !tbaa !44
  %3 = load ptr, ptr %2, align 8
  call void @_ZNSt12__shared_ptrIN5folly14RequestContextELN9__gnu_cxx12_Lock_policyE2EEC2Ev(ptr noundef nonnull align 8 dereferenceable(16) %3) #16
  ret void
}

; Function Attrs: mustprogress nounwind uwtable
define linkonce_odr void @_ZN5folly14EventBaseEventC2Ev(ptr noundef nonnull align 8 dereferenceable(168) %0) unnamed_addr #0 comdat align 2 {
  %2 = alloca ptr, align 8
  store ptr %0, ptr %2, align 8, !tbaa !39
  %3 = load ptr, ptr %2, align 8
  %4 = getelementptr inbounds nuw %"class.folly::EventBaseEvent", ptr %3, i32 0, i32 1
  store ptr null, ptr %4, align 8, !tbaa !41
  %5 = getelementptr inbounds nuw %"class.folly::EventBaseEvent", ptr %3, i32 0, i32 2
  store ptr null, ptr %5, align 8, !tbaa !42
  %6 = getelementptr inbounds nuw %"class.folly::EventBaseEvent", ptr %3, i32 0, i32 3
  store ptr null, ptr %6, align 8, !tbaa !43
  %7 = getelementptr inbounds nuw %"class.folly::EventBaseEvent", ptr %3, i32 0, i32 4
  call void @_ZN5folly13EventCallbackC2Ev(ptr noundef nonnull align 8 dereferenceable(16) %7) #16
  ret void
}

; Function Attrs: mustprogress uwtable
define void @_ZN5folly12AsyncTimeoutC2EPNS_14TimeoutManagerENS1_12InternalEnumE(ptr noundef nonnull align 8 dereferenceable(200) %0, ptr noundef %1, i32 noundef %2) unnamed_addr #1 align 2 personality ptr @__gxx_personality_v0 {
  %4 = alloca ptr, align 8
  %5 = alloca ptr, align 8
  %6 = alloca i32, align 4
  %7 = alloca ptr, align 8
  %8 = alloca i32, align 4
  store ptr %0, ptr %4, align 8, !tbaa !7
  store ptr %1, ptr %5, align 8, !tbaa !12
  store i32 %2, ptr %6, align 4, !tbaa !14
  %9 = load ptr, ptr %4, align 8
  store ptr getelementptr inbounds inrange(-16, 24) ({ [5 x ptr] }, ptr @_ZTVN5folly12AsyncTimeoutE, i32 0, i32 0, i32 2), ptr %9, align 8, !tbaa !16
  %10 = getelementptr inbounds nuw %"class.folly::AsyncTimeout", ptr %9, i32 0, i32 1
  call void @_ZN5folly14EventBaseEventC2Ev(ptr noundef nonnull align 8 dereferenceable(168) %10) #16
  %11 = getelementptr inbounds nuw %"class.folly::AsyncTimeout", ptr %9, i32 0, i32 2
  %12 = load ptr, ptr %5, align 8, !tbaa !12
  store ptr %12, ptr %11, align 8, !tbaa !18
  %13 = getelementptr inbounds nuw %"class.folly::AsyncTimeout", ptr %9, i32 0, i32 3
  call void @_ZNSt10shared_ptrIN5folly14RequestContextEEC2Ev(ptr noundef nonnull align 8 dereferenceable(16) %13) #16
  %14 = getelementptr inbounds nuw %"class.folly::AsyncTimeout", ptr %9, i32 0, i32 1
  invoke void @_ZN5folly14EventBaseEvent12eb_event_setEisPFvisPvES1_(ptr noundef nonnull align 8 dereferenceable(168) %14, i32 noundef -1, i16 noundef signext 1, ptr noundef @_ZN5folly12AsyncTimeout16libeventCallbackEisPv, ptr noundef %9)
          to label %15 unwind label %28

15:                                               ; preds = %3
  %16 = getelementptr inbounds nuw %"class.folly::AsyncTimeout", ptr %9, i32 0, i32 1
  invoke void @_ZN5folly14EventBaseEvent10eb_ev_baseEPNS_9EventBaseE(ptr noundef nonnull align 8 dereferenceable(168) %16, ptr noundef null)
          to label %17 unwind label %28

17:                                               ; preds = %15
  %18 = load ptr, ptr %5, align 8, !tbaa !12
  %19 = icmp ne ptr %18, null
  br i1 %19, label %20, label %32

20:                                               ; preds = %17
  %21 = getelementptr inbounds nuw %"class.folly::AsyncTimeout", ptr %9, i32 0, i32 2
  %22 = load ptr, ptr %21, align 8, !tbaa !18
  %23 = load i32, ptr %6, align 4, !tbaa !14
  %24 = load ptr, ptr %22, align 8, !tbaa !16
  %25 = getelementptr inbounds ptr, ptr %24, i64 2
  %26 = load ptr, ptr %25, align 8
  invoke void %26(ptr noundef nonnull align 8 dereferenceable(16) %22, ptr noundef %9, i32 noundef %23)
          to label %27 unwind label %28

27:                                               ; preds = %20
  br label %32

28:                                               ; preds = %20, %15, %3
  %29 = landingpad { ptr, i32 }
          cleanup
  %30 = extractvalue { ptr, i32 } %29, 0
  store ptr %30, ptr %7, align 8
  %31 = extractvalue { ptr, i32 } %29, 1
  store i32 %31, ptr %8, align 4
  call void @_ZNSt12__shared_ptrIN5folly14RequestContextELN9__gnu_cxx12_Lock_policyE2EED2Ev(ptr noundef nonnull align 8 dereferenceable(16) %13) #16
  call void @_ZN5folly14EventBaseEventD2Ev(ptr noundef nonnull align 8 dereferenceable(168) %10) #16
  br label %33

32:                                               ; preds = %27, %17
  ret void

33:                                               ; preds = %28
  %34 = load ptr, ptr %7, align 8
  %35 = load i32, ptr %8, align 4
  %36 = insertvalue { ptr, i32 } poison, ptr %34, 0
  %37 = insertvalue { ptr, i32 } %36, i32 %35, 1
  resume { ptr, i32 } %37
}