; Function Attrs: mustprogress uwtable
define void @_ZN5folly12AsyncTimeoutC2EPNS_14TimeoutManagerENS1_12InternalEnumE(ptr noundef nonnull align 8 dereferenceable(200) initializes((0, 8), (136, 164), (176, 200)) %0, ptr noundef %1, i32 noundef %2) unnamed_addr #1 align 2 personality ptr @__gxx_personality_v0 {
  store ptr getelementptr inbounds nuw inrange(-16, 24) (i8, ptr @_ZTVN5folly12AsyncTimeoutE, i64 16), ptr %0, align 8, !tbaa !7
  %4 = getelementptr inbounds nuw i8, ptr %0, i64 8
  %5 = getelementptr inbounds nuw i8, ptr %0, i64 136
  tail call void @llvm.memset.p0.i64(ptr noundef nonnull align 8 dereferenceable(28) %5, i8 0, i64 28, i1 false)
  %6 = getelementptr inbounds nuw i8, ptr %0, i64 176
  store ptr %1, ptr %6, align 8, !tbaa !10
  %7 = getelementptr inbounds nuw i8, ptr %0, i64 184
  tail call void @llvm.memset.p0.i64(ptr noundef nonnull align 8 dereferenceable(16) %7, i8 0, i64 16, i1 false)
  invoke void @event_set(ptr noundef nonnull align 8 dereferenceable(168) %4, i32 noundef -1, i16 noundef signext 1, ptr noundef nonnull @_ZN5folly12AsyncTimeout16libeventCallbackEisPv, ptr noundef nonnull %0)
          to label %_ZN5folly14EventBaseEvent12eb_event_setEisPFvisPvES1_.exit unwind label %14

_ZN5folly14EventBaseEvent12eb_event_setEisPFvisPvES1_.exit: ; preds = %3
  invoke void @_ZN5folly14EventBaseEvent10eb_ev_baseEPNS_9EventBaseE(ptr noundef nonnull align 8 dereferenceable(168) %4, ptr noundef null)
          to label %8 unwind label %14

8:                                                ; preds = %_ZN5folly14EventBaseEvent12eb_event_setEisPFvisPvES1_.exit
  %.not = icmp eq ptr %1, null
  br i1 %.not, label %16, label %9

9:                                                ; preds = %8
  %10 = load ptr, ptr %6, align 8, !tbaa !10
  %11 = load ptr, ptr %10, align 8, !tbaa !7
  %12 = getelementptr inbounds nuw i8, ptr %11, i64 16
  %13 = load ptr, ptr %12, align 8
  invoke void %13(ptr noundef nonnull align 8 dereferenceable(16) %10, ptr noundef nonnull %0, i32 noundef %2)
          to label %16 unwind label %14

14:                                               ; preds = %3, %9, %_ZN5folly14EventBaseEvent12eb_event_setEisPFvisPvES1_.exit
  %15 = landingpad { ptr, i32 }
          cleanup
  tail call void @_ZNSt12__shared_ptrIN5folly14RequestContextELN9__gnu_cxx12_Lock_policyE2EED2Ev(ptr noundef nonnull align 8 dereferenceable(16) %7) #14
  tail call void @_ZN5folly14EventBaseEventD2Ev(ptr noundef nonnull align 8 dereferenceable(168) %4) #14
  resume { ptr, i32 } %15

16:                                               ; preds = %9, %8
  ret void
}